; Function Attrs: null_pointer_is_valid sspstrong uwtable
define ptr @fvalue_to_string_repr(ptr noundef %0, ptr noundef %1, i32 noundef %2, i32 noundef %3) local_unnamed_addr #0 {
  %5 = load ptr, ptr %1, align 8
  %6 = getelementptr inbounds nuw i8, ptr %5, i64 80
  %7 = load ptr, ptr %6, align 8
  %8 = icmp eq ptr %7, null
  br i1 %8, label %11, label %9

9:                                                ; preds = %4
  %10 = tail call ptr %7(ptr noundef %0, ptr noundef %1, i32 noundef %2, i32 noundef %3)
  br label %11

11:                                               ; preds = %4, %9
  %.0 = phi ptr [ %10, %9 ], [ null, %4 ]
  ret ptr %.0
}